target datalayout = "e-m:e-p270:32:32-p271:32:32-p272:64:64-i64:64-i128:128-f80:128-n8:16:32:64-S128"
target triple = "x86_64-pc-linux-gnu"

@.str = private unnamed_addr constant [2 x i8] c" \00", align 1
@.str.1 = private unnamed_addr constant [19 x i8] c"%s: not available\0A\00", align 1
@.str.4 = private unnamed_addr constant [13 x i8] c"%s (%dx%d):\0A\00", align 1
@.str.8 = private unnamed_addr constant [7 x i8] c"%12.5e\00", align 1
@.str.9 = private unnamed_addr constant [7 x i8] c"%15.8e\00", align 1
@.str.10 = private unnamed_addr constant [21 x i8] c"GMX_PRINT_LONGFORMAT\00", align 1
@.str.11 = private unnamed_addr constant [10 x i8] c"%s[%5d]={\00", align 1
@.str.12 = private unnamed_addr constant [3 x i8] c", \00", align 1
@.str.13 = private unnamed_addr constant [3 x i8] c"}\0A\00", align 1

; Function Attrs: mustprogress nounwind uwtable
define noundef i32 @_Z9pr_indentP8_IO_FILEi(ptr noundef %0, i32 noundef %1) #0 {
  %3 = alloca ptr, align 8
  %4 = alloca i32, align 4
  %5 = alloca i32, align 4
  store ptr %0, ptr %3, align 8
  store i32 %1, ptr %4, align 4
  store i32 0, ptr %5, align 4
  br label %6

6:                                                ; preds = %13, %2
  %7 = load i32, ptr %5, align 4
  %8 = load i32, ptr %4, align 4
  %9 = icmp slt i32 %7, %8
  br i1 %9, label %10, label %16

10:                                               ; preds = %6
  %11 = load ptr, ptr %3, align 8
  %12 = call i32 (ptr, ptr, ...) @fprintf(ptr noundef %11, ptr noundef @.str) #4
  br label %13

13:                                               ; preds = %10
  %14 = load i32, ptr %5, align 4
  %15 = add nsw i32 %14, 1
  store i32 %15, ptr %5, align 4
  br label %6, !llvm.loop !5

16:                                               ; preds = %6
  %17 = load i32, ptr %4, align 4
  ret i32 %17
}

; Function Attrs: mustprogress nounwind uwtable
define noundef i32 @_Z12pr_title_nxnP8_IO_FILEiPKcii(ptr noundef %0, i32 noundef %1, ptr noundef %2, i32 noundef %3, i32 noundef %4) #0 {
  %6 = alloca ptr, align 8
  %7 = alloca i32, align 4
  %8 = alloca ptr, align 8
  %9 = alloca i32, align 4
  %10 = alloca i32, align 4
  store ptr %0, ptr %6, align 8
  store i32 %1, ptr %7, align 4
  store ptr %2, ptr %8, align 8
  store i32 %3, ptr %9, align 4
  store i32 %4, ptr %10, align 4
  %11 = load ptr, ptr %6, align 8
  %12 = load i32, ptr %7, align 4
  %13 = call noundef i32 @_Z9pr_indentP8_IO_FILEi(ptr noundef %11, i32 noundef %12)
  %14 = load ptr, ptr %6, align 8
  %15 = load ptr, ptr %8, align 8
  %16 = load i32, ptr %9, align 4
  %17 = load i32, ptr %10, align 4
  %18 = call i32 (ptr, ptr, ...) @fprintf(ptr noundef %14, ptr noundef @.str.4, ptr noundef %15, i32 noundef %16, i32 noundef %17) #4
  %19 = load i32, ptr %7, align 4
  %20 = add nsw i32 %19, 3
  ret i32 %20
}

; Function Attrs: mustprogress nounwind uwtable
define noundef zeroext i1 @_Z9availableP8_IO_FILEPKviPKc(ptr noundef %0, ptr noundef %1, i32 noundef %2, ptr noundef %3) #0 {
  %5 = alloca ptr, align 8
  %6 = alloca ptr, align 8
  %7 = alloca i32, align 4
  %8 = alloca ptr, align 8
  store ptr %0, ptr %5, align 8
  store ptr %1, ptr %6, align 8
  store i32 %2, ptr %7, align 4
  store ptr %3, ptr %8, align 8
  %9 = load ptr, ptr %6, align 8
  %10 = icmp ne ptr %9, null
  br i1 %10, label %22, label %11

11:                                               ; preds = %4
  %12 = load i32, ptr %7, align 4
  %13 = icmp sgt i32 %12, 0
  br i1 %13, label %14, label %18

14:                                               ; preds = %11
  %15 = load ptr, ptr %5, align 8
  %16 = load i32, ptr %7, align 4
  %17 = call noundef i32 @_Z9pr_indentP8_IO_FILEi(ptr noundef %15, i32 noundef %16)
  br label %18

18:                                               ; preds = %14, %11
  %19 = load ptr, ptr %5, align 8
  %20 = load ptr, ptr %8, align 8
  %21 = call i32 (ptr, ptr, ...) @fprintf(ptr noundef %19, ptr noundef @.str.1, ptr noundef %20) #4
  br label %22

22:                                               ; preds = %18, %4
  %23 = load ptr, ptr %6, align 8
  %24 = icmp ne ptr %23, null
  ret i1 %24
}

; Function Attrs: mustprogress nounwind uwtable
define void @_Z15pr_reals_of_dimP8_IO_FILEiPKcPKfii(ptr noundef %0, i32 noundef %1, ptr noundef %2, ptr noundef %3, i32 noundef %4, i32 noundef %5) #0 {
  %7 = alloca ptr, align 8
  %8 = alloca i32, align 4
  %9 = alloca ptr, align 8
  %10 = alloca ptr, align 8
  %11 = alloca i32, align 4
  %12 = alloca i32, align 4
  %13 = alloca ptr, align 8
  %14 = alloca ptr, align 8
  %15 = alloca ptr, align 8
  %16 = alloca i32, align 4
  %17 = alloca i32, align 4
  store ptr %0, ptr %7, align 8
  store i32 %1, ptr %8, align 4
  store ptr %2, ptr %9, align 8
  store ptr %3, ptr %10, align 8
  store i32 %4, ptr %11, align 4
  store i32 %5, ptr %12, align 4
  store ptr @.str.8, ptr %13, align 8
  store ptr @.str.9, ptr %14, align 8
  %18 = call ptr @getenv(ptr noundef @.str.10) #4
  %19 = icmp ne ptr %18, null
  br i1 %19, label %20, label %22

20:                                               ; preds = %6
  %21 = load ptr, ptr %14, align 8
  br label %24

22:                                               ; preds = %6
  %23 = load ptr, ptr %13, align 8
  br label %24

24:                                               ; preds = %22, %20
  %25 = phi ptr [ %21, %20 ], [ %23, %22 ]
  store ptr %25, ptr %15, align 8
  %26 = load ptr, ptr %7, align 8
  %27 = load ptr, ptr %10, align 8
  %28 = load i32, ptr %8, align 4
  %29 = load ptr, ptr %9, align 8
  %30 = call noundef zeroext i1 @_Z9availableP8_IO_FILEPKviPKc(ptr noundef %26, ptr noundef %27, i32 noundef %28, ptr noundef %29)
  br i1 %30, label %31, label %84

31:                                               ; preds = %24
  %32 = load ptr, ptr %7, align 8
  %33 = load i32, ptr %8, align 4
  %34 = load ptr, ptr %9, align 8
  %35 = load i32, ptr %11, align 4
  %36 = load i32, ptr %12, align 4
  %37 = call noundef i32 @_Z12pr_title_nxnP8_IO_FILEiPKcii(ptr noundef %32, i32 noundef %33, ptr noundef %34, i32 noundef %35, i32 noundef %36)
  store i32 %37, ptr %8, align 4
  store i32 0, ptr %16, align 4
  br label %38

38:                                               ; preds = %80, %31
  %39 = load i32, ptr %16, align 4
  %40 = load i32, ptr %11, align 4
  %41 = icmp slt i32 %39, %40
  br i1 %41, label %42, label %83

42:                                               ; preds = %38
  %43 = load ptr, ptr %7, align 8
  %44 = load i32, ptr %8, align 4
  %45 = call noundef i32 @_Z9pr_indentP8_IO_FILEi(ptr noundef %43, i32 noundef %44)
  %46 = load ptr, ptr %7, align 8
  %47 = load ptr, ptr %9, align 8
  %48 = load i32, ptr %16, align 4
  %49 = call i32 (ptr, ptr, ...) @fprintf(ptr noundef %46, ptr noundef @.str.11, ptr noundef %47, i32 noundef %48) #4
  store i32 0, ptr %17, align 4
  br label %50

50:                                               ; preds = %74, %42
  %51 = load i32, ptr %17, align 4
  %52 = load i32, ptr %12, align 4
  %53 = icmp slt i32 %51, %52
  br i1 %53, label %54, label %77

54:                                               ; preds = %50
  %55 = load i32, ptr %17, align 4
  %56 = icmp ne i32 %55, 0
  br i1 %56, label %57, label %60

57:                                               ; preds = %54
  %58 = load ptr, ptr %7, align 8
  %59 = call i32 (ptr, ptr, ...) @fprintf(ptr noundef %58, ptr noundef @.str.12) #4
  br label %60

60:                                               ; preds = %57, %54
  %61 = load ptr, ptr %7, align 8
  %62 = load ptr, ptr %15, align 8
  %63 = load ptr, ptr %10, align 8
  %64 = load i32, ptr %16, align 4
  %65 = load i32, ptr %12, align 4
  %66 = mul nsw i32 %64, %65
  %67 = load i32, ptr %17, align 4
  %68 = add nsw i32 %66, %67
  %69 = sext i32 %68 to i64
  %70 = getelementptr inbounds float, ptr %63, i64 %69
  %71 = load float, ptr %70, align 4
  %72 = fpext float %71 to double
  %73 = call i32 (ptr, ptr, ...) @fprintf(ptr noundef %61, ptr noundef %62, double noundef %72) #4
  br label %74

74:                                               ; preds = %60
  %75 = load i32, ptr %17, align 4
  %76 = add nsw i32 %75, 1
  store i32 %76, ptr %17, align 4
  br label %50, !llvm.loop !9

77:                                               ; preds = %50
  %78 = load ptr, ptr %7, align 8
  %79 = call i32 (ptr, ptr, ...) @fprintf(ptr noundef %78, ptr noundef @.str.13) #4
  br label %80

80:                                               ; preds = %77
  %81 = load i32, ptr %16, align 4
  %82 = add nsw i32 %81, 1
  store i32 %82, ptr %16, align 4
  br label %38, !llvm.loop !10

83:                                               ; preds = %38
  br label %84

84:                                               ; preds = %83, %24
  ret void
}