; Function Attrs: mustprogress nofree nounwind uwtable
define void @_Z15pr_reals_of_dimP8_IO_FILEiPKcPKfii(ptr nocapture noundef %0, i32 noundef %1, ptr noundef %2, ptr noundef readonly %3, i32 noundef %4, i32 noundef %5) local_unnamed_addr #0 {
  %7 = tail call ptr @getenv(ptr noundef nonnull @.str.10) #6
  %.not = icmp eq ptr %7, null
  %8 = select i1 %.not, ptr @.str.8, ptr @.str.9
  %.not39 = icmp eq ptr %3, null
  %9 = icmp sgt i32 %1, 0
  br i1 %.not39, label %10, label %_Z9availableP8_IO_FILEPKviPKc.exit.thread

10:                                               ; preds = %6
  br i1 %9, label %.lr.ph.i.i, label %.loopexit.sink.split

.lr.ph.i.i:                                       ; preds = %10, %.lr.ph.i.i
  %.05.i.i = phi i32 [ %11, %.lr.ph.i.i ], [ 0, %10 ]
  %fputc.i.i = tail call i32 @fputc(i32 32, ptr %0)
  %11 = add nuw nsw i32 %.05.i.i, 1
  %exitcond.not.i.i = icmp eq i32 %11, %1
  br i1 %exitcond.not.i.i, label %.loopexit.sink.split, label %.lr.ph.i.i, !llvm.loop !5

_Z9availableP8_IO_FILEPKviPKc.exit.thread:        ; preds = %6
  br i1 %9, label %.lr.ph.i.i34, label %_Z12pr_title_nxnP8_IO_FILEiPKcii.exit

.lr.ph.i.i34:                                     ; preds = %_Z9availableP8_IO_FILEPKviPKc.exit.thread, %.lr.ph.i.i34
  %.05.i.i35 = phi i32 [ %12, %.lr.ph.i.i34 ], [ 0, %_Z9availableP8_IO_FILEPKviPKc.exit.thread ]
  %fputc.i.i36 = tail call i32 @fputc(i32 32, ptr %0)
  %12 = add nuw nsw i32 %.05.i.i35, 1
  %exitcond.not.i.i37 = icmp eq i32 %12, %1
  br i1 %exitcond.not.i.i37, label %_Z12pr_title_nxnP8_IO_FILEiPKcii.exit, label %.lr.ph.i.i34, !llvm.loop !5

_Z12pr_title_nxnP8_IO_FILEiPKcii.exit:            ; preds = %.lr.ph.i.i34, %_Z9availableP8_IO_FILEPKviPKc.exit.thread
  %13 = tail call i32 (ptr, ptr, ...) @fprintf(ptr noundef %0, ptr noundef nonnull @.str.4, ptr noundef %2, i32 noundef %4, i32 noundef %5) #6
  %14 = icmp sgt i32 %4, 0
  br i1 %14, label %.lr.ph42, label %.loopexit

.lr.ph42:                                         ; preds = %_Z12pr_title_nxnP8_IO_FILEiPKcii.exit
  %15 = icmp sgt i32 %1, -3
  %16 = add nsw i32 %1, 2
  %17 = icmp sgt i32 %5, 0
  br i1 %17, label %.lr.ph42.split.us.preheader, label %.lr.ph42.split

.lr.ph42.split.us.preheader:                      ; preds = %.lr.ph42
  %wide.trip.count59 = zext nneg i32 %4 to i64
  %wide.trip.count = zext nneg i32 %5 to i64
  br label %.lr.ph42.split.us

.lr.ph42.split.us:                                ; preds = %.lr.ph42.split.us.preheader, %._crit_edge.us
  %indvars.iv56 = phi i64 [ 0, %.lr.ph42.split.us.preheader ], [ %indvars.iv.next57, %._crit_edge.us ]
  br i1 %15, label %.lr.ph.i.us, label %_Z9pr_indentP8_IO_FILEi.exit.us

.lr.ph.i.us:                                      ; preds = %.lr.ph42.split.us, %.lr.ph.i.us
  %.05.i.us = phi i32 [ %18, %.lr.ph.i.us ], [ 0, %.lr.ph42.split.us ]
  %fputc.i.us = tail call i32 @fputc(i32 32, ptr %0)
  %18 = add nuw nsw i32 %.05.i.us, 1
  %exitcond.not.i.us = icmp eq i32 %.05.i.us, %16
  br i1 %exitcond.not.i.us, label %_Z9pr_indentP8_IO_FILEi.exit.us, label %.lr.ph.i.us, !llvm.loop !5

_Z9pr_indentP8_IO_FILEi.exit.us:                  ; preds = %.lr.ph.i.us, %.lr.ph42.split.us
  %19 = trunc nuw nsw i64 %indvars.iv56 to i32
  %20 = tail call i32 (ptr, ptr, ...) @fprintf(ptr noundef %0, ptr noundef nonnull @.str.11, ptr noundef %2, i32 noundef %19) #6
  %21 = trunc i64 %indvars.iv56 to i32
  %22 = mul i32 %21, %5
  %23 = zext i32 %22 to i64
  %invariant.gep = getelementptr float, ptr %3, i64 %23
  br label %24

24:                                               ; preds = %_Z9pr_indentP8_IO_FILEi.exit.us, %27
  %indvars.iv = phi i64 [ 0, %_Z9pr_indentP8_IO_FILEi.exit.us ], [ %indvars.iv.next, %27 ]
  %.not32.us = icmp eq i64 %indvars.iv, 0
  br i1 %.not32.us, label %27, label %25

25:                                               ; preds = %24
  %26 = tail call i64 @fwrite(ptr nonnull @.str.12, i64 2, i64 1, ptr %0)
  br label %27

27:                                               ; preds = %25, %24
  %gep = getelementptr float, ptr %invariant.gep, i64 %indvars.iv
  %28 = load float, ptr %gep, align 4
  %29 = fpext float %28 to double
  %30 = tail call i32 (ptr, ptr, ...) @fprintf(ptr noundef %0, ptr noundef nonnull %8, double noundef %29) #6
  %indvars.iv.next = add nuw nsw i64 %indvars.iv, 1
  %exitcond55.not = icmp eq i64 %indvars.iv.next, %wide.trip.count
  br i1 %exitcond55.not, label %._crit_edge.us, label %24, !llvm.loop !9

._crit_edge.us:                                   ; preds = %27
  %31 = tail call i64 @fwrite(ptr nonnull @.str.13, i64 2, i64 1, ptr %0)
  %indvars.iv.next57 = add nuw nsw i64 %indvars.iv56, 1
  %exitcond60.not = icmp eq i64 %indvars.iv.next57, %wide.trip.count59
  br i1 %exitcond60.not, label %.loopexit, label %.lr.ph42.split.us, !llvm.loop !10

.lr.ph42.split:                                   ; preds = %.lr.ph42
  br i1 %15, label %.lr.ph.i.preheader.us49, label %_Z9pr_indentP8_IO_FILEi.exit

.lr.ph.i.preheader.us49:                          ; preds = %.lr.ph42.split, %_Z9pr_indentP8_IO_FILEi.exit.loopexit.us50
  %.03041.us43 = phi i32 [ %35, %_Z9pr_indentP8_IO_FILEi.exit.loopexit.us50 ], [ 0, %.lr.ph42.split ]
  br label %.lr.ph.i.us44

.lr.ph.i.us44:                                    ; preds = %.lr.ph.i.preheader.us49, %.lr.ph.i.us44
  %.05.i.us45 = phi i32 [ %32, %.lr.ph.i.us44 ], [ 0, %.lr.ph.i.preheader.us49 ]
  %fputc.i.us46 = tail call i32 @fputc(i32 32, ptr %0)
  %32 = add nuw nsw i32 %.05.i.us45, 1
  %exitcond.not.i.us47 = icmp eq i32 %.05.i.us45, %16
  br i1 %exitcond.not.i.us47, label %_Z9pr_indentP8_IO_FILEi.exit.loopexit.us50, label %.lr.ph.i.us44, !llvm.loop !5

_Z9pr_indentP8_IO_FILEi.exit.loopexit.us50:       ; preds = %.lr.ph.i.us44
  %33 = tail call i32 (ptr, ptr, ...) @fprintf(ptr noundef %0, ptr noundef nonnull @.str.11, ptr noundef %2, i32 noundef %.03041.us43) #6
  %34 = tail call i64 @fwrite(ptr nonnull @.str.13, i64 2, i64 1, ptr %0)
  %35 = add nuw nsw i32 %.03041.us43, 1
  %exitcond53.not = icmp eq i32 %35, %4
  br i1 %exitcond53.not, label %.loopexit, label %.lr.ph.i.preheader.us49, !llvm.loop !10

_Z9pr_indentP8_IO_FILEi.exit:                     ; preds = %.lr.ph42.split, %_Z9pr_indentP8_IO_FILEi.exit
  %.03041 = phi i32 [ %38, %_Z9pr_indentP8_IO_FILEi.exit ], [ 0, %.lr.ph42.split ]
  %36 = tail call i32 (ptr, ptr, ...) @fprintf(ptr noundef %0, ptr noundef nonnull @.str.11, ptr noundef %2, i32 noundef %.03041) #6
  %37 = tail call i64 @fwrite(ptr nonnull @.str.13, i64 2, i64 1, ptr %0)
  %38 = add nuw nsw i32 %.03041, 1
  %exitcond.not = icmp eq i32 %38, %4
  br i1 %exitcond.not, label %.loopexit, label %_Z9pr_indentP8_IO_FILEi.exit, !llvm.loop !10

.loopexit.sink.split:                             ; preds = %.lr.ph.i.i, %10
  %39 = tail call i32 (ptr, ptr, ...) @fprintf(ptr noundef %0, ptr noundef nonnull @.str.1, ptr noundef %2) #6
  br label %.loopexit

.loopexit:                                        ; preds = %_Z9pr_indentP8_IO_FILEi.exit, %_Z9pr_indentP8_IO_FILEi.exit.loopexit.us50, %._crit_edge.us, %.loopexit.sink.split, %_Z12pr_title_nxnP8_IO_FILEiPKcii.exit
  ret void
}